(lp0
(lp1
(I0
F1.0
tp2
a(I1
F-1.0
tp3
a(I2
F-1.0
tp4
a(I3
F-0.16666666666666655
tp5
a(I4
F0.6666666666666663
tp6
a(I5
F1.0000000000000002
tp7
a(I6
F0.666666666666667
tp8
a(I7
F-0.16666666666666674
tp9
a(I8
F-0.9999999999999999
tp10
a(I9
F-1.0
tp11
a(I10
F1.0
tp12
aa.