(lp0
(lp1
(I0
F1.0
tp2
a(I1
F-1.0
tp3
a(I2
F-0.8461538461538463
tp4
a(I3
F0.02197802197802147
tp5
a(I4
F0.7542457542457537
tp6
a(I5
F0.9720279720279715
tp7
a(I6
F0.6503496503496513
tp8
a(I7
F-6.661338147750939e-16
tp9
a(I8
F-0.6503496503496509
tp10
a(I9
F-0.9720279720279714
tp11
a(I10
F-0.7542457542457539
tp12
a(I11
F-0.02197802197802179
tp13
a(I12
F0.8461538461538463
tp14
a(I13
F1.0
tp15
a(I14
F-1.0
tp16
aa(lp17
(I0
F1.0
tp18
a(I1
F-1.0
tp19
a(I2
F-0.8681318681318684
tp20
a(I3
F-0.02197802197802272
tp21
a(I4
F0.7002997002996991
tp22
a(I5
F0.9240759240759234
tp23
a(I6
F0.622377622377623
tp24
a(I7
F-6.661338147750939e-16
tp25
a(I8
F-0.6223776223776225
tp26
a(I9
F-0.9240759240759233
tp27
a(I10
F-0.7002997002996993
tp28
a(I11
F0.021978021978022455
tp29
a(I12
F0.8681318681318684
tp30
a(I13
F1.0
tp31
a(I14
F-1.0
tp32
aa(lp33
(I0
F1.0
tp34
a(I1
F-1.0
tp35
a(I2
F-0.8901098901098903
tp36
a(I3
F-0.06593406593406652
tp37
a(I4
F0.6463536463536455
tp38
a(I5
F0.8761238761238762
tp39
a(I6
F0.5944055944055946
tp40
a(I7
F-6.661338147750939e-16
tp41
a(I8
F-0.5944055944055942
tp42
a(I9
F-0.8761238761238752
tp43
a(I10
F-0.6463536463536457
tp44
a(I11
F0.06593406593406625
tp45
a(I12
F0.8901098901098903
tp46
a(I13
F1.0
tp47
a(I14
F-1.0
tp48
aa(lp49
(I0
F1.0
tp50
a(I1
F-1.0
tp51
a(I2
F-0.9120879120879122
tp52
a(I3
F-0.10989010989011032
tp53
a(I4
F0.5924075924075913
tp54
a(I5
F0.8281718281718281
tp55
a(I6
F0.5664335664335662
tp56
a(I7
F-6.661338147750939e-16
tp57
a(I8
F-0.5664335664335658
tp58
a(I9
F-0.828171828171828
tp59
a(I10
F-0.5924075924075916
tp60
a(I11
F0.10989010989011005
tp61
a(I12
F0.9120879120879122
tp62
a(I13
F1.0
tp63
a(I14
F-1.0
tp64
aa(lp65
(I0
F1.0
tp66
a(I1
F-1.0
tp67
a(I2
F-0.9340659340659343
tp68
a(I3
F-0.15384615384615452
tp69
a(I4
F0.5384615384615372
tp70
a(I5
F0.7802197802197796
tp71
a(I6
F0.5384615384615388
tp72
a(I7
F-6.661338147750939e-16
tp73
a(I8
F-0.5384615384615383
tp74
a(I9
F-0.7802197802197799
tp75
a(I10
F-0.5384615384615379
tp76
a(I11
F0.1538461538461543
tp77
a(I12
F0.9340659340659343
tp78
a(I13
F1.0
tp79
a(I14
F-1.0
tp80
aa(lp81
(I0
F1.0
tp82
a(I1
F-1.0
tp83
a(I2
F-0.9560439560439562
tp84
a(I3
F-0.19780219780219832
tp85
a(I4
F0.4845154845154835
tp86
a(I5
F0.7322677322677319
tp87
a(I6
F0.5104895104895104
tp88
a(I7
F-6.661338147750939e-16
tp89
a(I8
F-0.51048951048951
tp90
a(I9
F-0.7322677322677318
tp91
a(I10
F-0.48451548451548376
tp92
a(I11
F0.1978021978021981
tp93
a(I12
F0.9560439560439562
tp94
a(I13
F1.0
tp95
a(I14
F-1.0
tp96
aa(lp97
(I0
F1.0
tp98
a(I1
F-1.0
tp99
a(I2
F-0.9780219780219781
tp100
a(I3
F-0.24175824175824212
tp101
a(I4
F0.4305694305694298
tp102
a(I5
F0.6843156843156842
tp103
a(I6
F0.48251748251748294
tp104
a(I7
F-6.661338147750939e-16
tp105
a(I8
F-0.4825174825174825
tp106
a(I9
F-0.6843156843156846
tp107
a(I10
F-0.4305694305694301
tp108
a(I11
F0.2417582417582419
tp109
a(I12
F0.9780219780219781
tp110
a(I13
F1.0
tp111
a(I14
F-1.0
tp112
aa(lp113
(I0
F1.0
tp114
a(I1
F-1.0
tp115
a(I2
F-1.0
tp116
a(I3
F-0.2857142857142859
tp117
a(I4
F0.3766233766233759
tp118
a(I5
F0.6363636363636366
tp119
a(I6
F0.4545454545454546
tp120
a(I7
F-6.661338147750939e-16
tp121
a(I8
F-0.45454545454545414
tp122
a(I9
F-0.6363636363636365
tp123
a(I10
F-0.3766233766233764
tp124
a(I11
F0.2857142857142857
tp125
a(I12
F1.0
tp126
a(I13
F1.0
tp127
a(I14
F-1.0
tp128
aa.