(lp0
(lp1
(I0
F1.0
tp2
a(I1
F-1.0
tp3
a(I2
F-0.980952380952381
tp4
a(I3
F-0.19120879120879128
tp5
a(I4
F0.5897435897435901
tp6
a(I5
F0.9660339660339645
tp7
a(I6
F0.8401598401598414
tp8
a(I7
F0.3277389277389262
tp9
a(I8
F-0.3277389277389271
tp10
a(I9
F-0.8401598401598402
tp11
a(I10
F-0.9660339660339656
tp12
a(I11
F-0.5897435897435896
tp13
a(I12
F0.19120879120879147
tp14
a(I13
F0.980952380952381
tp15
a(I14
F1.0
tp16
a(I15
F-1.0
tp17
aa(lp18
(I0
F1.0
tp19
a(I1
F-1.0
tp20
a(I2
F-1.0
tp21
a(I3
F-0.2307692307692307
tp22
a(I4
F0.538461538461539
tp23
a(I5
F0.9160839160839147
tp24
a(I6
F0.8041958041958062
tp25
a(I7
F0.3146853146853137
tp26
a(I8
F-0.3146853146853137
tp27
a(I9
F-0.804195804195805
tp28
a(I10
F-0.9160839160839154
tp29
a(I11
F-0.5384615384615385
tp30
a(I12
F0.2307692307692309
tp31
a(I13
F1.0
tp32
a(I14
F1.0
tp33
a(I15
F-1.0
tp34
aa.